; ModuleID = '27/88.c'
source_filename = "27/88.c"
target datalayout = "e-m:e-p270:32:32-p271:32:32-p272:64:64-i64:64-f80:128-n8:16:32:64-S128"
target triple = "x86_64-pc-linux-gnu"

@.str = private unnamed_addr constant [3 x i8] c"%d\00", align 1
@.str.1 = private unnamed_addr constant [12 x i8] c"%lf %lf %lf\00", align 1
@.str.2 = private unnamed_addr constant [7 x i8] c"error\0A\00", align 1
@.str.3 = private unnamed_addr constant [13 x i8] c"x1=x2=%.5lf\0A\00", align 1
@.str.4 = private unnamed_addr constant [19 x i8] c"x1=%.5lf;x2=%.5lf\0A\00", align 1
@.str.5 = private unnamed_addr constant [33 x i8] c"x1=%.5lf+%.5lfi;x2=%.5lf-%.5lfi\0A\00", align 1

; Function Attrs: noinline nounwind uwtable
define dso_local i32 @main() #0 {
  %1 = alloca i32, align 4
  %2 = alloca i32, align 4
  %3 = alloca i32, align 4
  %4 = alloca double, align 8
  %5 = alloca double, align 8
  %6 = alloca double, align 8
  %7 = alloca double, align 8
  %8 = alloca double, align 8
  %9 = alloca double, align 8
  %10 = alloca double, align 8
  %11 = alloca double, align 8
  store i32 0, i32* %1, align 4
  %12 = call i32 (i8*, ...) @__isoc99_scanf(i8* getelementptr inbounds ([3 x i8], [3 x i8]* @.str, i64 0, i64 0), i32* %2)
  store i32 0, i32* %3, align 4
  br label %13

13:                                               ; preds = %86, %0
  %14 = load i32, i32* %3, align 4
  %15 = load i32, i32* %2, align 4
  %16 = icmp slt i32 %14, %15
  br i1 %16, label %17, label %89

17:                                               ; preds = %13
  %18 = call i32 (i8*, ...) @__isoc99_scanf(i8* getelementptr inbounds ([12 x i8], [12 x i8]* @.str.1, i64 0, i64 0), double* %4, double* %5, double* %6)
  %19 = load double, double* %4, align 8
  %20 = call double @llvm.fabs.f64(double %19)
  %21 = fcmp ole double %20, 0x3EB0C6F7A0B5ED8D
  br i1 %21, label %22, label %25

22:                                               ; preds = %17
  %23 = load double, double* %4, align 8
  %24 = call i32 (i8*, ...) @printf(i8* getelementptr inbounds ([7 x i8], [7 x i8]* @.str.2, i64 0, i64 0), double %23)
  br label %86

25:                                               ; preds = %17
  %26 = load double, double* %5, align 8
  %27 = load double, double* %5, align 8
  %28 = fmul double %26, %27
  %29 = load double, double* %4, align 8
  %30 = fmul double 4.000000e+00, %29
  %31 = load double, double* %6, align 8
  %32 = fmul double %30, %31
  %33 = fsub double %28, %32
  store double %33, double* %7, align 8
  %34 = load double, double* %7, align 8
  %35 = call double @llvm.fabs.f64(double %34)
  %36 = fcmp ole double %35, 0x3EB0C6F7A0B5ED8D
  br i1 %36, label %37, label %44

37:                                               ; preds = %25
  %38 = load double, double* %5, align 8
  %39 = fneg double %38
  %40 = load double, double* %4, align 8
  %41 = fmul double 2.000000e+00, %40
  %42 = fdiv double %39, %41
  %43 = call i32 (i8*, ...) @printf(i8* getelementptr inbounds ([13 x i8], [13 x i8]* @.str.3, i64 0, i64 0), double %42)
  br label %85

44:                                               ; preds = %25
  %45 = load double, double* %7, align 8
  %46 = fcmp ogt double %45, 0x3EB0C6F7A0B5ED8D
  br i1 %46, label %47, label %67

47:                                               ; preds = %44
  %48 = load double, double* %5, align 8
  %49 = fneg double %48
  %50 = load double, double* %7, align 8
  %51 = call double @sqrt(double %50) #4
  %52 = fadd double %49, %51
  %53 = load double, double* %4, align 8
  %54 = fmul double 2.000000e+00, %53
  %55 = fdiv double %52, %54
  store double %55, double* %8, align 8
  %56 = load double, double* %5, align 8
  %57 = fneg double %56
  %58 = load double, double* %7, align 8
  %59 = call double @sqrt(double %58) #4
  %60 = fsub double %57, %59
  %61 = load double, double* %4, align 8
  %62 = fmul double 2.000000e+00, %61
  %63 = fdiv double %60, %62
  store double %63, double* %9, align 8
  %64 = load double, double* %8, align 8
  %65 = load double, double* %9, align 8
  %66 = call i32 (i8*, ...) @printf(i8* getelementptr inbounds ([19 x i8], [19 x i8]* @.str.4, i64 0, i64 0), double %64, double %65)
  br label %84

67:                                               ; preds = %44
  %68 = load double, double* %5, align 8
  %69 = fneg double %68
  %70 = load double, double* %4, align 8
  %71 = fmul double 2.000000e+00, %70
  %72 = fdiv double %69, %71
  store double %72, double* %10, align 8
  %73 = load double, double* %7, align 8
  %74 = fneg double %73
  %75 = call double @sqrt(double %74) #4
  %76 = load double, double* %4, align 8
  %77 = fmul double 2.000000e+00, %76
  %78 = fdiv double %75, %77
  store double %78, double* %11, align 8
  %79 = load double, double* %10, align 8
  %80 = load double, double* %11, align 8
  %81 = load double, double* %10, align 8
  %82 = load double, double* %11, align 8
  %83 = call i32 (i8*, ...) @printf(i8* getelementptr inbounds ([33 x i8], [33 x i8]* @.str.5, i64 0, i64 0), double %79, double %80, double %81, double %82)
  br label %84

84:                                               ; preds = %67, %47
  br label %85

85:                                               ; preds = %84, %37
  br label %86

86:                                               ; preds = %85, %22
  %87 = load i32, i32* %3, align 4
  %88 = add nsw i32 %87, 1
  store i32 %88, i32* %3, align 4
  br label %13

89:                                               ; preds = %13
  ret i32 0
}

declare dso_local i32 @__isoc99_scanf(i8*, ...) #1

; Function Attrs: nounwind readnone speculatable willreturn
declare double @llvm.fabs.f64(double) #2

declare dso_local i32 @printf(i8*, ...) #1

; Function Attrs: nounwind
declare dso_local double @sqrt(double) #3


!llvm.module.flags = !{!0}
!llvm.ident = !{!1}

!0 = !{i32 1, !"wchar_size", i32 4}
!1 = !{!"clang version 10.0.0-4ubuntu1 "}
